target datalayout = "e-m:e-p270:32:32-p271:32:32-p272:64:64-i64:64-i128:128-f80:128-n8:16:32:64-S128"
target triple = "x86_64-unknown-linux-gnu"

%struct._DBusDisplayConsole = type { %struct._GDBusObjectSkeleton, %struct.DisplayChangeListener, ptr, ptr, ptr, ptr, ptr, ptr, ptr, i32, i32, i32, %struct.Notifier }
%struct._GDBusObjectSkeleton = type { %struct._GObject, ptr }
%struct._GObject = type { %struct._GTypeInstance, i32, ptr }
%struct._GTypeInstance = type { ptr }
%struct.DisplayChangeListener = type { i64, ptr, ptr, ptr, %struct.anon }
%struct.anon = type { ptr, ptr }
%struct.Notifier = type { ptr, %struct.anon.0 }
%struct.anon.0 = type { ptr, ptr }
%struct.QemuUIInfo = type { i16, i16, i32, i32, i32, i32, i32 }

@.str.35 = private unnamed_addr constant [27 x i8] c"SetUIInfo is not supported\00", align 1

; Function Attrs: nounwind sspstrong uwtable
define internal i32 @dbus_console_set_ui_info(ptr noundef %ddc, ptr noundef %invocation, i16 noundef zeroext %arg_width_mm, i16 noundef zeroext %arg_height_mm, i32 noundef %arg_xoff, i32 noundef %arg_yoff, i32 noundef %arg_width, i32 noundef %arg_height) #0 {
entry:
  %retval = alloca i32, align 4
  %ddc.addr = alloca ptr, align 8
  %invocation.addr = alloca ptr, align 8
  %arg_width_mm.addr = alloca i16, align 2
  %arg_height_mm.addr = alloca i16, align 2
  %arg_xoff.addr = alloca i32, align 4
  %arg_yoff.addr = alloca i32, align 4
  %arg_width.addr = alloca i32, align 4
  %arg_height.addr = alloca i32, align 4
  %info = alloca %struct.QemuUIInfo, align 4
  store ptr %ddc, ptr %ddc.addr, align 8
  store ptr %invocation, ptr %invocation.addr, align 8
  store i16 %arg_width_mm, ptr %arg_width_mm.addr, align 2
  store i16 %arg_height_mm, ptr %arg_height_mm.addr, align 2
  store i32 %arg_xoff, ptr %arg_xoff.addr, align 4
  store i32 %arg_yoff, ptr %arg_yoff.addr, align 4
  store i32 %arg_width, ptr %arg_width.addr, align 4
  store i32 %arg_height, ptr %arg_height.addr, align 4
  %width_mm = getelementptr inbounds %struct.QemuUIInfo, ptr %info, i32 0, i32 0
  %0 = load i16, ptr %arg_width_mm.addr, align 2
  store i16 %0, ptr %width_mm, align 4
  %height_mm = getelementptr inbounds %struct.QemuUIInfo, ptr %info, i32 0, i32 1
  %1 = load i16, ptr %arg_height_mm.addr, align 2
  store i16 %1, ptr %height_mm, align 2
  %xoff = getelementptr inbounds %struct.QemuUIInfo, ptr %info, i32 0, i32 2
  %2 = load i32, ptr %arg_xoff.addr, align 4
  store i32 %2, ptr %xoff, align 4
  %yoff = getelementptr inbounds %struct.QemuUIInfo, ptr %info, i32 0, i32 3
  %3 = load i32, ptr %arg_yoff.addr, align 4
  store i32 %3, ptr %yoff, align 4
  %width = getelementptr inbounds %struct.QemuUIInfo, ptr %info, i32 0, i32 4
  %4 = load i32, ptr %arg_width.addr, align 4
  store i32 %4, ptr %width, align 4
  %height = getelementptr inbounds %struct.QemuUIInfo, ptr %info, i32 0, i32 5
  %5 = load i32, ptr %arg_height.addr, align 4
  store i32 %5, ptr %height, align 4
  %refresh_rate = getelementptr inbounds %struct.QemuUIInfo, ptr %info, i32 0, i32 6
  store i32 0, ptr %refresh_rate, align 4
  %6 = load ptr, ptr %ddc.addr, align 8
  %dcl = getelementptr inbounds %struct._DBusDisplayConsole, ptr %6, i32 0, i32 1
  %con = getelementptr inbounds %struct.DisplayChangeListener, ptr %dcl, i32 0, i32 3
  %7 = load ptr, ptr %con, align 8
  %call = call zeroext i1 @dpy_ui_info_supported(ptr noundef %7)
  br i1 %call, label %if.end, label %if.then

if.then:                                          ; preds = %entry
  %8 = load ptr, ptr %invocation.addr, align 8
  %call1 = call i32 @dbus_display_error_quark()
  call void (ptr, i32, i32, ptr, ...) @g_dbus_method_invocation_return_error(ptr noundef %8, i32 noundef %call1, i32 noundef 2, ptr noundef @.str.35)
  store i32 1, ptr %retval, align 4
  br label %return

if.end:                                           ; preds = %entry
  %9 = load ptr, ptr %ddc.addr, align 8
  %dcl2 = getelementptr inbounds %struct._DBusDisplayConsole, ptr %9, i32 0, i32 1
  %con3 = getelementptr inbounds %struct.DisplayChangeListener, ptr %dcl2, i32 0, i32 3
  %10 = load ptr, ptr %con3, align 8
  %call4 = call i32 @dpy_set_ui_info(ptr noundef %10, ptr noundef %info, i1 noundef zeroext false)
  %11 = load ptr, ptr %ddc.addr, align 8
  %iface = getelementptr inbounds %struct._DBusDisplayConsole, ptr %11, i32 0, i32 4
  %12 = load ptr, ptr %iface, align 8
  %13 = load ptr, ptr %invocation.addr, align 8
  call void @qemu_dbus_display1_console_complete_set_uiinfo(ptr noundef %12, ptr noundef %13)
  store i32 1, ptr %retval, align 4
  br label %return

return:                                           ; preds = %if.end, %if.then
  %14 = load i32, ptr %retval, align 4
  ret i32 %14
}