; Function Attrs: nounwind sspstrong uwtable
define internal noundef i32 @dbus_console_set_ui_info(ptr noundef readonly captures(none) %ddc, ptr noundef %invocation, i16 noundef zeroext %arg_width_mm, i16 noundef zeroext %arg_height_mm, i32 noundef %arg_xoff, i32 noundef %arg_yoff, i32 noundef %arg_width, i32 noundef %arg_height) #0 {
entry:
  %info = alloca %struct.QemuUIInfo, align 4
  store i16 %arg_width_mm, ptr %info, align 4
  %height_mm = getelementptr inbounds nuw i8, ptr %info, i64 2
  store i16 %arg_height_mm, ptr %height_mm, align 2
  %xoff = getelementptr inbounds nuw i8, ptr %info, i64 4
  store i32 %arg_xoff, ptr %xoff, align 4
  %yoff = getelementptr inbounds nuw i8, ptr %info, i64 8
  store i32 %arg_yoff, ptr %yoff, align 4
  %width = getelementptr inbounds nuw i8, ptr %info, i64 12
  store i32 %arg_width, ptr %width, align 4
  %height = getelementptr inbounds nuw i8, ptr %info, i64 16
  store i32 %arg_height, ptr %height, align 4
  %refresh_rate = getelementptr inbounds nuw i8, ptr %info, i64 20
  store i32 0, ptr %refresh_rate, align 4
  %con = getelementptr inbounds nuw i8, ptr %ddc, i64 56
  %0 = load ptr, ptr %con, align 8
  %call = tail call zeroext i1 @dpy_ui_info_supported(ptr noundef %0) #9
  br i1 %call, label %if.end, label %if.then

if.then:                                          ; preds = %entry
  %call1 = tail call i32 @dbus_display_error_quark() #9
  tail call void (ptr, i32, i32, ptr, ...) @g_dbus_method_invocation_return_error(ptr noundef %invocation, i32 noundef %call1, i32 noundef 2, ptr noundef nonnull @.str.35) #9
  br label %return

if.end:                                           ; preds = %entry
  %1 = load ptr, ptr %con, align 8
  %call4 = call i32 @dpy_set_ui_info(ptr noundef %1, ptr noundef nonnull %info, i1 noundef zeroext false) #9
  %iface = getelementptr inbounds nuw i8, ptr %ddc, i64 96
  %2 = load ptr, ptr %iface, align 8
  call void @qemu_dbus_display1_console_complete_set_uiinfo(ptr noundef %2, ptr noundef %invocation) #9
  br label %return

return:                                           ; preds = %if.end, %if.then
  ret i32 1
}